target datalayout = "e-m:e-p270:32:32-p271:32:32-p272:64:64-i64:64-i128:128-f80:128-n8:16:32:64-S128"
target triple = "x86_64-pc-linux-gnu"

%struct.SDL_KeyboardInstance = type { i32, ptr }

@SDL_keyboards = internal global ptr null, align 8
@SDL_keyboard_count = internal global i32 0, align 4
@.str.1 = private unnamed_addr constant [1 x i8] zeroinitializer, align 1

; Function Attrs: nounwind uwtable
define internal i32 @SDL_GetKeyboardIndex(i32 noundef %0) #0 {
  %2 = alloca i32, align 4
  %3 = alloca i32, align 4
  %4 = alloca i32, align 4
  %5 = alloca i32, align 4
  store i32 %0, ptr %3, align 4
  call void @llvm.lifetime.start.p0(i64 4, ptr %4) #6
  store i32 0, ptr %4, align 4
  br label %6

6:                                                ; preds = %23, %1
  %7 = load i32, ptr %4, align 4
  %8 = load i32, ptr @SDL_keyboard_count, align 4
  %9 = icmp slt i32 %7, %8
  br i1 %9, label %11, label %10

10:                                               ; preds = %6
  store i32 2, ptr %5, align 4
  br label %26

11:                                               ; preds = %6
  %12 = load i32, ptr %3, align 4
  %13 = load ptr, ptr @SDL_keyboards, align 8
  %14 = load i32, ptr %4, align 4
  %15 = sext i32 %14 to i64
  %16 = getelementptr inbounds %struct.SDL_KeyboardInstance, ptr %13, i64 %15
  %17 = getelementptr inbounds nuw %struct.SDL_KeyboardInstance, ptr %16, i32 0, i32 0
  %18 = load i32, ptr %17, align 8
  %19 = icmp eq i32 %12, %18
  br i1 %19, label %20, label %22

20:                                               ; preds = %11
  %21 = load i32, ptr %4, align 4
  store i32 %21, ptr %2, align 4
  store i32 1, ptr %5, align 4
  br label %26

22:                                               ; preds = %11
  br label %23

23:                                               ; preds = %22
  %24 = load i32, ptr %4, align 4
  %25 = add nsw i32 %24, 1
  store i32 %25, ptr %4, align 4
  br label %6, !llvm.loop !5

26:                                               ; preds = %20, %10
  call void @llvm.lifetime.end.p0(i64 4, ptr %4) #6
  %27 = load i32, ptr %5, align 4
  switch i32 %27, label %31 [
    i32 2, label %28
    i32 1, label %29
  ]

28:                                               ; preds = %26
  store i32 -1, ptr %2, align 4
  br label %29

29:                                               ; preds = %28, %26
  %30 = load i32, ptr %2, align 4
  ret i32 %30

31:                                               ; preds = %26
  unreachable
}

; Function Attrs: nounwind uwtable
define hidden void @SDL_SetKeyboardName(i32 noundef %0, ptr noundef %1) #0 {
  %3 = alloca i32, align 4
  %4 = alloca ptr, align 8
  %5 = alloca i32, align 4
  %6 = alloca ptr, align 8
  store i32 %0, ptr %3, align 4
  store ptr %1, ptr %4, align 8
  br label %7

7:                                                ; preds = %2
  br label %8

8:                                                ; preds = %7
  call void @llvm.lifetime.start.p0(i64 4, ptr %5) #6
  %9 = load i32, ptr %3, align 4
  %10 = call i32 @SDL_GetKeyboardIndex(i32 noundef %9)
  store i32 %10, ptr %5, align 4
  %11 = load i32, ptr %5, align 4
  %12 = icmp sge i32 %11, 0
  br i1 %12, label %13, label %31

13:                                               ; preds = %8
  call void @llvm.lifetime.start.p0(i64 8, ptr %6) #6
  %14 = load ptr, ptr @SDL_keyboards, align 8
  %15 = load i32, ptr %5, align 4
  %16 = sext i32 %15 to i64
  %17 = getelementptr inbounds %struct.SDL_KeyboardInstance, ptr %14, i64 %16
  store ptr %17, ptr %6, align 8
  %18 = load ptr, ptr %6, align 8
  %19 = getelementptr inbounds nuw %struct.SDL_KeyboardInstance, ptr %18, i32 0, i32 1
  %20 = load ptr, ptr %19, align 8
  call void @SDL_free_REAL(ptr noundef %20)
  %21 = load ptr, ptr %4, align 8
  %22 = icmp ne ptr %21, null
  br i1 %22, label %23, label %25

23:                                               ; preds = %13
  %24 = load ptr, ptr %4, align 8
  br label %26

25:                                               ; preds = %13
  br label %26

26:                                               ; preds = %25, %23
  %27 = phi ptr [ %24, %23 ], [ @.str.1, %25 ]
  %28 = call noalias ptr @SDL_strdup_REAL(ptr noundef %27)
  %29 = load ptr, ptr %6, align 8
  %30 = getelementptr inbounds nuw %struct.SDL_KeyboardInstance, ptr %29, i32 0, i32 1
  store ptr %28, ptr %30, align 8
  call void @llvm.lifetime.end.p0(i64 8, ptr %6) #6
  br label %31

31:                                               ; preds = %26, %8
  call void @llvm.lifetime.end.p0(i64 4, ptr %5) #6
  ret void
}